; Function Attrs: mustprogress uwtable
define noundef ptr @_ZNK6icu_7513MessageFormat20getArgFromListByNameEPKNS_11FormattableEPKNS_13UnicodeStringEiRS4_(ptr nocapture noundef nonnull readnone align 8 dereferenceable(816) %this, ptr noundef readnone %arguments, ptr noundef %argumentNames, i32 noundef %cnt, ptr noundef nonnull align 8 dereferenceable(64) %name) local_unnamed_addr #1 align 2 {
entry:
  %cmp4 = icmp sgt i32 %cnt, 0
  br i1 %cmp4, label %for.body.lr.ph, label %return

for.body.lr.ph:                                   ; preds = %entry
  %fUnion.i.i2.i = getelementptr inbounds i8, ptr %name, i64 8
  %fLength.i5.i = getelementptr inbounds i8, ptr %name, i64 12
  %fBuffer.i.i.i = getelementptr inbounds i8, ptr %name, i64 10
  %fArray.i.i.i = getelementptr inbounds i8, ptr %name, i64 24
  %wide.trip.count = zext nneg i32 %cnt to i64
  br label %for.body

for.cond:                                         ; preds = %_ZNK6icu_7513UnicodeString7compareERKS0_.exit
  %indvars.iv.next = add nuw nsw i64 %indvars.iv, 1
  %exitcond.not = icmp eq i64 %indvars.iv.next, %wide.trip.count
  br i1 %exitcond.not, label %return, label %for.body, !llvm.loop !36

for.body:                                         ; preds = %for.body.lr.ph, %for.cond
  %indvars.iv = phi i64 [ 0, %for.body.lr.ph ], [ %indvars.iv.next, %for.cond ]
  %arrayidx = getelementptr inbounds %"class.icu_75::UnicodeString", ptr %argumentNames, i64 %indvars.iv
  %fUnion.i.i.i = getelementptr inbounds i8, ptr %arrayidx, i64 8
  %0 = load i16, ptr %fUnion.i.i.i, align 8
  %1 = load i16, ptr %fUnion.i.i2.i, align 8
  %conv2.i10.i.i = and i16 %1, 1
  %tobool.not.i.i = icmp eq i16 %conv2.i10.i.i, 0
  br i1 %tobool.not.i.i, label %if.else.i.i, label %if.then.i.i

if.then.i.i:                                      ; preds = %for.body
  %2 = trunc i16 %0 to i8
  %3 = and i8 %2, 1
  %conv.i.i = xor i8 %3, 1
  br label %_ZNK6icu_7513UnicodeString7compareERKS0_.exit

if.else.i.i:                                      ; preds = %for.body
  %cmp.i.i3.i = icmp slt i16 %1, 0
  %4 = load i32, ptr %fLength.i5.i, align 4
  %5 = ashr i16 %1, 5
  %shr.i.i4.i = sext i16 %5 to i32
  %cond.i6.i = select i1 %cmp.i.i3.i, i32 %4, i32 %shr.i.i4.i
  %cmp.i.i.i = icmp slt i16 %0, 0
  %fLength.i.i = getelementptr inbounds i8, ptr %arrayidx, i64 12
  %6 = load i32, ptr %fLength.i.i, align 4
  %7 = ashr i16 %0, 5
  %shr.i.i.i = sext i16 %7 to i32
  %cond.i.i = select i1 %cmp.i.i.i, i32 %6, i32 %shr.i.i.i
  %spec.select.i.i = tail call i32 @llvm.smin.i32(i32 %cond.i6.i, i32 0)
  %cmp5.i.i.i = icmp slt i32 %cond.i6.i, 0
  %sub.i.i.i = sub nsw i32 %cond.i6.i, %spec.select.i.i
  %spec.select9.i.i = tail call i32 @llvm.smin.i32(i32 %sub.i.i.i, i32 %cond.i6.i)
  %srcLength.addr.0.i.i = select i1 %cmp5.i.i.i, i32 0, i32 %spec.select9.i.i
  %8 = and i16 %1, 2
  %tobool.not.i.i.i = icmp eq i16 %8, 0
  %9 = load ptr, ptr %fArray.i.i.i, align 8
  %cond.i.i.i = select i1 %tobool.not.i.i.i, ptr %9, ptr %fBuffer.i.i.i
  %call5.i.i = tail call noundef signext i8 @_ZNK6icu_7513UnicodeString9doCompareEiiPKDsii(ptr noundef nonnull align 8 dereferenceable(64) %arrayidx, i32 noundef 0, i32 noundef %cond.i.i, ptr noundef %cond.i.i.i, i32 noundef %spec.select.i.i, i32 noundef %srcLength.addr.0.i.i)
  br label %_ZNK6icu_7513UnicodeString7compareERKS0_.exit

_ZNK6icu_7513UnicodeString7compareERKS0_.exit:    ; preds = %if.then.i.i, %if.else.i.i
  %retval.0.i.i = phi i8 [ %conv.i.i, %if.then.i.i ], [ %call5.i.i, %if.else.i.i ]
  %cmp2 = icmp eq i8 %retval.0.i.i, 0
  br i1 %cmp2, label %if.then, label %for.cond

if.then:                                          ; preds = %_ZNK6icu_7513UnicodeString7compareERKS0_.exit
  %add.ptr = getelementptr inbounds %"class.icu_75::Formattable", ptr %arguments, i64 %indvars.iv
  br label %return

return:                                           ; preds = %for.cond, %entry, %if.then
  %retval.0 = phi ptr [ %add.ptr, %if.then ], [ null, %entry ], [ null, %for.cond ]
  ret ptr %retval.0
}